; Function Attrs: mustprogress uwtable
define hidden noundef i64 @_ZN5osgeo4proj14FileApiAdapter4readEPvm(ptr noundef nonnull readonly align 8 captures(none) dereferenceable(96) %0, ptr noundef %1, i64 noundef %2) unnamed_addr #0 align 2 {
  %4 = getelementptr inbounds nuw i8, ptr %0, i64 80
  %5 = load ptr, ptr %4, align 8, !tbaa !51
  %6 = getelementptr inbounds nuw i8, ptr %5, i64 232
  %7 = load ptr, ptr %6, align 8, !tbaa !81
  %8 = getelementptr inbounds nuw i8, ptr %0, i64 88
  %9 = load ptr, ptr %8, align 8, !tbaa !79
  %10 = getelementptr inbounds nuw i8, ptr %5, i64 304
  %11 = load ptr, ptr %10, align 8, !tbaa !80
  %12 = tail call noundef i64 %7(ptr noundef %5, ptr noundef %9, ptr noundef %1, i64 noundef %2, ptr noundef %11)
  ret i64 %12
}